(dp0
Vengine
p1
Vlatex
p2
sVpackages
p3
c__builtin__
set
p4
((lp5
Vhyperref
p6
aVepsfig
p7
aVverbatim
p8
aVfancyhdr
p9
aVamsmath
p10
aVsetspace
p11
aVbooktabs
p12
aVdcolumn
p13
aVgeometry
p14
aVpstricks
p15
aVepstopdf
p16
aVpst-node
p17
aVlscape
p18
aVpstricks-add
p19
aVpst-plot
p20
aVgraphicx
p21
aVtextpos
p22
aVcolor
p23
aVlongtable
p24
atp25
Rp26
sVfiles_with_guttermarks
p27
g4
((lp28
V/Users/dietz/Dropbox/Crops/./summary.tex
p29
aS'summary.tex'
p30
atp31
Rp32
sVsynctex
p33
I01
s.